; Function Attrs: mustprogress nofree norecurse nosync nounwind willreturn memory(read, inaccessiblemem: none) uwtable
define dso_local noundef float @_ZNK11btMultiBody11getLinkMassEi(ptr nocapture noundef nonnull readonly align 8 dereferenceable(640) %this, i32 noundef %i) local_unnamed_addr #6 align 2 {
entry:
  %m_data.i = getelementptr inbounds i8, ptr %this, i64 192
  %0 = load ptr, ptr %m_data.i, align 8
  %idxprom.i = sext i32 %i to i64
  %arrayidx.i = getelementptr inbounds %struct.btMultibodyLink, ptr %0, i64 %idxprom.i
  %1 = load float, ptr %arrayidx.i, align 8
  ret float %1
}